target datalayout = "e-m:e-p270:32:32-p271:32:32-p272:64:64-i64:64-i128:128-f80:128-n8:16:32:64-S128"
target triple = "x86_64-pc-linux-gnu"

%struct.grpc_event_engine_vtable = type { i64, i8, i8, ptr, ptr, ptr, ptr, ptr, ptr, ptr, ptr, ptr, ptr, ptr, ptr, ptr, ptr, ptr, ptr, ptr, ptr, ptr, ptr, ptr, ptr, ptr, ptr, ptr, ptr, ptr, ptr, ptr, ptr, ptr, ptr, ptr }

@_ZL9g_vtables = internal global [11 x ptr] [ptr null, ptr null, ptr null, ptr null, ptr @grpc_ev_epoll1_posix, ptr @grpc_ev_poll_posix, ptr @grpc_ev_none_posix, ptr null, ptr null, ptr null, ptr null], align 16

; Function Attrs: mustprogress nounwind uwtable
define void @_Z34grpc_register_event_engine_factoryPK24grpc_event_engine_vtableb(ptr noundef %0, i1 noundef zeroext %1) #4 {
  %3 = alloca ptr, align 8
  %4 = alloca i8, align 1
  %5 = alloca ptr, align 8
  %6 = alloca ptr, align 8
  %7 = alloca i64, align 8
  %8 = alloca i32, align 4
  store ptr %0, ptr %3, align 8, !tbaa !3
  %9 = zext i1 %1 to i8
  store i8 %9, ptr %4, align 1, !tbaa !8
  call void @llvm.lifetime.start.p0(i64 8, ptr %5) #3
  store ptr null, ptr %5, align 8, !tbaa !10
  call void @llvm.lifetime.start.p0(i64 8, ptr %6) #3
  store ptr null, ptr %6, align 8, !tbaa !10
  call void @llvm.lifetime.start.p0(i64 8, ptr %7) #3
  store i64 0, ptr %7, align 8, !tbaa !13
  br label %10

10:                                               ; preds = %45, %2
  %11 = load i64, ptr %7, align 8, !tbaa !13
  %12 = icmp ult i64 %11, 11
  br i1 %12, label %14, label %13

13:                                               ; preds = %10
  store i32 2, ptr %8, align 4
  br label %48

14:                                               ; preds = %10
  %15 = load i64, ptr %7, align 8, !tbaa !13
  %16 = getelementptr inbounds nuw [11 x ptr], ptr @_ZL9g_vtables, i64 0, i64 %15
  %17 = load ptr, ptr %16, align 8, !tbaa !3
  %18 = icmp eq ptr %17, null
  br i1 %18, label %19, label %28

19:                                               ; preds = %14
  %20 = load ptr, ptr %5, align 8, !tbaa !10
  %21 = icmp eq ptr %20, null
  br i1 %21, label %22, label %25

22:                                               ; preds = %19
  %23 = load i64, ptr %7, align 8, !tbaa !13
  %24 = getelementptr inbounds nuw [11 x ptr], ptr @_ZL9g_vtables, i64 0, i64 %23
  store ptr %24, ptr %5, align 8, !tbaa !10
  br label %25

25:                                               ; preds = %22, %19
  %26 = load i64, ptr %7, align 8, !tbaa !13
  %27 = getelementptr inbounds nuw [11 x ptr], ptr @_ZL9g_vtables, i64 0, i64 %26
  store ptr %27, ptr %6, align 8, !tbaa !10
  br label %44

28:                                               ; preds = %14
  %29 = load i64, ptr %7, align 8, !tbaa !13
  %30 = getelementptr inbounds nuw [11 x ptr], ptr @_ZL9g_vtables, i64 0, i64 %29
  %31 = load ptr, ptr %30, align 8, !tbaa !3
  %32 = getelementptr inbounds nuw %struct.grpc_event_engine_vtable, ptr %31, i32 0, i32 29
  %33 = load ptr, ptr %32, align 8, !tbaa !15
  %34 = load ptr, ptr %3, align 8, !tbaa !3
  %35 = getelementptr inbounds nuw %struct.grpc_event_engine_vtable, ptr %34, i32 0, i32 29
  %36 = load ptr, ptr %35, align 8, !tbaa !15
  %37 = call i32 @strcmp(ptr noundef %33, ptr noundef %36) #16
  %38 = icmp eq i32 0, %37
  br i1 %38, label %39, label %43

39:                                               ; preds = %28
  %40 = load ptr, ptr %3, align 8, !tbaa !3
  %41 = load i64, ptr %7, align 8, !tbaa !13
  %42 = getelementptr inbounds nuw [11 x ptr], ptr @_ZL9g_vtables, i64 0, i64 %41
  store ptr %40, ptr %42, align 8, !tbaa !3
  store i32 1, ptr %8, align 4
  br label %48

43:                                               ; preds = %28
  br label %44

44:                                               ; preds = %43, %25
  br label %45

45:                                               ; preds = %44
  %46 = load i64, ptr %7, align 8, !tbaa !13
  %47 = add i64 %46, 1
  store i64 %47, ptr %7, align 8, !tbaa !13
  br label %10, !llvm.loop !18

48:                                               ; preds = %39, %13
  call void @llvm.lifetime.end.p0(i64 8, ptr %7) #3
  %49 = load i32, ptr %8, align 4
  switch i32 %49, label %60 [
    i32 2, label %50
  ]

50:                                               ; preds = %48
  %51 = load ptr, ptr %3, align 8, !tbaa !3
  %52 = load i8, ptr %4, align 1, !tbaa !8, !range !20, !noundef !21
  %53 = trunc i8 %52 to i1
  br i1 %53, label %54, label %56

54:                                               ; preds = %50
  %55 = load ptr, ptr %5, align 8, !tbaa !10
  br label %58

56:                                               ; preds = %50
  %57 = load ptr, ptr %6, align 8, !tbaa !10
  br label %58

58:                                               ; preds = %56, %54
  %59 = phi ptr [ %55, %54 ], [ %57, %56 ]
  store ptr %51, ptr %59, align 8, !tbaa !3
  store i32 0, ptr %8, align 4
  br label %60

60:                                               ; preds = %58, %48
  call void @llvm.lifetime.end.p0(i64 8, ptr %6) #3
  call void @llvm.lifetime.end.p0(i64 8, ptr %5) #3
  %61 = load i32, ptr %8, align 4
  switch i32 %61, label %63 [
    i32 0, label %62
    i32 1, label %62
  ]

62:                                               ; preds = %60, %60
  ret void

63:                                               ; preds = %60
  unreachable
}