; Function Attrs: mustprogress nofree nounwind memory(readwrite, inaccessiblemem: none) uwtable
define void @_Z34grpc_register_event_engine_factoryPK24grpc_event_engine_vtableb(ptr noundef %0, i1 noundef zeroext %1) local_unnamed_addr #3 {
  %3 = getelementptr inbounds nuw i8, ptr %0, i64 224
  br label %4

4:                                                ; preds = %2, %16
  %.01423 = phi i64 [ 0, %2 ], [ %17, %16 ]
  %.01522 = phi ptr [ null, %2 ], [ %.1, %16 ]
  %.01621 = phi ptr [ null, %2 ], [ %.2, %16 ]
  %5 = getelementptr inbounds nuw [11 x ptr], ptr @_ZL9g_vtables, i64 0, i64 %.01423
  %6 = load ptr, ptr %5, align 8, !tbaa !3
  %7 = icmp eq ptr %6, null
  br i1 %7, label %8, label %10

8:                                                ; preds = %4
  %9 = icmp eq ptr %.01621, null
  %spec.select = select i1 %9, ptr %5, ptr %.01621
  br label %16

10:                                               ; preds = %4
  %11 = getelementptr inbounds nuw i8, ptr %6, i64 224
  %12 = load ptr, ptr %11, align 8, !tbaa !8
  %13 = load ptr, ptr %3, align 8, !tbaa !8
  %14 = tail call i32 @strcmp(ptr noundef nonnull dereferenceable(1) %12, ptr noundef nonnull dereferenceable(1) %13) #21
  %15 = icmp eq i32 %14, 0
  br i1 %15, label %.loopexit, label %16

16:                                               ; preds = %8, %10
  %.2 = phi ptr [ %spec.select, %8 ], [ %.01621, %10 ]
  %.1 = phi ptr [ %5, %8 ], [ %.01522, %10 ]
  %17 = add nuw nsw i64 %.01423, 1
  %exitcond = icmp eq i64 %17, 11
  br i1 %exitcond, label %.critedge, label %4, !llvm.loop !13

.critedge:                                        ; preds = %16
  %18 = select i1 %1, ptr %.2, ptr %.1
  br label %.loopexit

.loopexit:                                        ; preds = %10, %.critedge
  %.lcssa.sink = phi ptr [ %18, %.critedge ], [ %5, %10 ]
  store ptr %0, ptr %.lcssa.sink, align 8, !tbaa !3
  ret void
}